target datalayout = "e-m:e-p270:32:32-p271:32:32-p272:64:64-i64:64-i128:128-f80:128-n8:16:32:64-S128"
target triple = "x86_64-unknown-linux-gnu"

%"class.icu_75::Calendar" = type <{ %"class.icu_75::UObject", i8, i8, i8, i8, [24 x i32], [24 x i8], [24 x i32], i32, double, i8, [7 x i8], ptr, i32, i32, i32, i8, [3 x i8], i32, i32, i32, i32, i32, i32, i32, i32, [157 x i8], [157 x i8], [6 x i8] }>
%"class.icu_75::UObject" = type { ptr }

; Function Attrs: mustprogress nounwind uwtable
define linkonce_odr void @_ZN6icu_758Calendar11internalSetE19UCalendarDateFieldsi(ptr noundef nonnull align 8 dereferenceable(618) %this, i32 noundef %field, i32 noundef %value) #0 comdat align 2 {
entry:
  %this.addr = alloca ptr, align 8
  %field.addr = alloca i32, align 4
  %value.addr = alloca i32, align 4
  store ptr %this, ptr %this.addr, align 8
  store i32 %field, ptr %field.addr, align 4
  store i32 %value, ptr %value.addr, align 4
  %this1 = load ptr, ptr %this.addr, align 8
  %0 = load i32, ptr %value.addr, align 4
  %fFields = getelementptr inbounds %"class.icu_75::Calendar", ptr %this1, i32 0, i32 5
  %1 = load i32, ptr %field.addr, align 4
  %idxprom = zext i32 %1 to i64
  %arrayidx = getelementptr inbounds [24 x i32], ptr %fFields, i64 0, i64 %idxprom
  store i32 %0, ptr %arrayidx, align 4
  %fStamp = getelementptr inbounds %"class.icu_75::Calendar", ptr %this1, i32 0, i32 7
  %2 = load i32, ptr %field.addr, align 4
  %idxprom2 = zext i32 %2 to i64
  %arrayidx3 = getelementptr inbounds [24 x i32], ptr %fStamp, i64 0, i64 %idxprom2
  store i32 1, ptr %arrayidx3, align 4
  %fIsSet = getelementptr inbounds %"class.icu_75::Calendar", ptr %this1, i32 0, i32 6
  %3 = load i32, ptr %field.addr, align 4
  %idxprom4 = zext i32 %3 to i64
  %arrayidx5 = getelementptr inbounds [24 x i8], ptr %fIsSet, i64 0, i64 %idxprom4
  store i8 1, ptr %arrayidx5, align 1
  ret void
}

; Function Attrs: mustprogress uwtable
define void @_ZN6icu_7514CopticCalendar19handleComputeFieldsEiR10UErrorCode(ptr noundef nonnull align 8 dereferenceable(618) %this, i32 noundef %julianDay, ptr noundef nonnull align 4 dereferenceable(4) %0) unnamed_addr #1 align 2 {
entry:
  %this.addr = alloca ptr, align 8
  %julianDay.addr = alloca i32, align 4
  %.addr = alloca ptr, align 8
  %eyear = alloca i32, align 4
  %month = alloca i32, align 4
  %day = alloca i32, align 4
  %era = alloca i32, align 4
  %year = alloca i32, align 4
  store ptr %this, ptr %this.addr, align 8
  store i32 %julianDay, ptr %julianDay.addr, align 4
  store ptr %0, ptr %.addr, align 8
  %this1 = load ptr, ptr %this.addr, align 8
  %1 = load i32, ptr %julianDay.addr, align 4
  %vtable = load ptr, ptr %this1, align 8
  %vfn = getelementptr inbounds ptr, ptr %vtable, i64 55
  %2 = load ptr, ptr %vfn, align 8
  %call = call noundef i32 %2(ptr noundef nonnull align 8 dereferenceable(618) %this1)
  call void @_ZN6icu_7510CECalendar6jdToCEEiiRiS1_S1_(i32 noundef %1, i32 noundef %call, ptr noundef nonnull align 4 dereferenceable(4) %eyear, ptr noundef nonnull align 4 dereferenceable(4) %month, ptr noundef nonnull align 4 dereferenceable(4) %day)
  %3 = load i32, ptr %eyear, align 4
  %cmp = icmp sle i32 %3, 0
  br i1 %cmp, label %if.then, label %if.else

if.then:                                          ; preds = %entry
  store i32 0, ptr %era, align 4
  %4 = load i32, ptr %eyear, align 4
  %sub = sub nsw i32 1, %4
  store i32 %sub, ptr %year, align 4
  br label %if.end

if.else:                                          ; preds = %entry
  store i32 1, ptr %era, align 4
  %5 = load i32, ptr %eyear, align 4
  store i32 %5, ptr %year, align 4
  br label %if.end

if.end:                                           ; preds = %if.else, %if.then
  %6 = load i32, ptr %eyear, align 4
  call void @_ZN6icu_758Calendar11internalSetE19UCalendarDateFieldsi(ptr noundef nonnull align 8 dereferenceable(618) %this1, i32 noundef 19, i32 noundef %6)
  %7 = load i32, ptr %era, align 4
  call void @_ZN6icu_758Calendar11internalSetE19UCalendarDateFieldsi(ptr noundef nonnull align 8 dereferenceable(618) %this1, i32 noundef 0, i32 noundef %7)
  %8 = load i32, ptr %year, align 4
  call void @_ZN6icu_758Calendar11internalSetE19UCalendarDateFieldsi(ptr noundef nonnull align 8 dereferenceable(618) %this1, i32 noundef 1, i32 noundef %8)
  %9 = load i32, ptr %month, align 4
  call void @_ZN6icu_758Calendar11internalSetE19UCalendarDateFieldsi(ptr noundef nonnull align 8 dereferenceable(618) %this1, i32 noundef 2, i32 noundef %9)
  %10 = load i32, ptr %month, align 4
  call void @_ZN6icu_758Calendar11internalSetE19UCalendarDateFieldsi(ptr noundef nonnull align 8 dereferenceable(618) %this1, i32 noundef 23, i32 noundef %10)
  %11 = load i32, ptr %day, align 4
  call void @_ZN6icu_758Calendar11internalSetE19UCalendarDateFieldsi(ptr noundef nonnull align 8 dereferenceable(618) %this1, i32 noundef 5, i32 noundef %11)
  %12 = load i32, ptr %month, align 4
  %mul = mul nsw i32 30, %12
  %13 = load i32, ptr %day, align 4
  %add = add nsw i32 %mul, %13
  call void @_ZN6icu_758Calendar11internalSetE19UCalendarDateFieldsi(ptr noundef nonnull align 8 dereferenceable(618) %this1, i32 noundef 6, i32 noundef %add)
  ret void
}